---
triple:          'arm64-apple-darwin'
binary-path:     'build/run_all_benchmarks'
relocations:
  - { offset: 0x19, size: 0x8, addend: 0x0, symName: _emutls_destroy, symObjAddr: 0x0, symBinAddr: 0x100002240, symSize: 0x60 }
  - { offset: 0x228, size: 0x8, addend: 0x0, symName: _emutls_mutex, symObjAddr: 0x300, symBinAddr: 0x100010010, symSize: 0x0 }
  - { offset: 0x23E, size: 0x8, addend: 0x0, symName: _emutls_key, symObjAddr: 0x2638, symBinAddr: 0x100010098, symSize: 0x0 }
  - { offset: 0x254, size: 0x8, addend: 0x0, symName: _emutls_size, symObjAddr: 0x2630, symBinAddr: 0x100010090, symSize: 0x0 }
  - { offset: 0x26B, size: 0x8, addend: 0x0, symName: ___emutls_register_common, symObjAddr: 0x2AC, symBinAddr: 0x1000024EC, symSize: 0x40 }
  - { offset: 0x2CA, size: 0x8, addend: 0x0, symName: ___emutls_get_address, symObjAddr: 0x8C, symBinAddr: 0x1000022CC, symSize: 0x220 }
  - { offset: 0x32F, size: 0x8, addend: 0x0, symName: _once.0, symObjAddr: 0x2F0, symBinAddr: 0x100010000, symSize: 0x0 }
  - { offset: 0x4C8, size: 0x8, addend: 0x0, symName: _emutls_init, symObjAddr: 0x60, symBinAddr: 0x1000022A0, symSize: 0x2C }
  - { offset: 0x4DF, size: 0x8, addend: 0x0, symName: _emutls_init, symObjAddr: 0x60, symBinAddr: 0x1000022A0, symSize: 0x2C }
  - { offset: 0x506, size: 0x8, addend: 0x0, symName: _emutls_destroy, symObjAddr: 0x0, symBinAddr: 0x100002240, symSize: 0x60 }
  - { offset: 0x2B6F, size: 0x8, addend: 0x0, symName: _main, symObjAddr: 0x0, symBinAddr: 0x100009320, symSize: 0x4 }
  - { offset: 0x119F9, size: 0x8, addend: 0x0, symName: __ZStL8__ioinit, symObjAddr: 0x7BCE8, symBinAddr: 0x100010AD8, symSize: 0x0 }
  - { offset: 0x1234A, size: 0x8, addend: 0x0, symName: __ZNSt23mersenne_twister_engineIjLm32ELm624ELm397ELm31ELj2567483615ELm11ELj4294967295ELm7ELj2636928640ELm15ELj4022730752ELm18ELj1812433253EE11_M_gen_randEv, symObjAddr: 0x1FC0, symBinAddr: 0x100004500, symSize: 0x160 }
  - { offset: 0x12EB3, size: 0x8, addend: 0x0, symName: __ZNSt6vectorIN8FFTBench14ImplementationESaIS1_EE17_M_realloc_appendIJS1_EEEvDpOT_, symObjAddr: 0x19E0, symBinAddr: 0x100003F20, symSize: 0x1C4 }
  - { offset: 0x13A7D, size: 0x8, addend: 0x0, symName: __ZNSt6vectorIN8FFTBench13BenchmarkCaseESaIS1_EE17_M_realloc_appendIJS1_EEEvDpOT_, symObjAddr: 0x1400, symBinAddr: 0x100003940, symSize: 0x1C4 }
  - { offset: 0x15736, size: 0x8, addend: 0x0, symName: __ZNSt6vectorIN8FFTBench14ImplementationESaIS1_EED1Ev, symObjAddr: 0xA0, symBinAddr: 0x1000025E0, symSize: 0xA0 }
  - { offset: 0x15A90, size: 0x8, addend: 0x0, symName: __ZNSt6vectorIN8FFTBench13BenchmarkCaseESaIS1_EED1Ev, symObjAddr: 0x8, symBinAddr: 0x100002548, symSize: 0x98 }
  - { offset: 0x15E82, size: 0x8, addend: 0x0, symName: __ZN8FFTBench18run_all_benchmarksEv, symObjAddr: 0x440, symBinAddr: 0x100002980, symSize: 0xFC0 }
  - { offset: 0x17290, size: 0x8, addend: 0x0, symName: __ZN8FFTBench18run_all_benchmarksEv, symObjAddr: 0x440, symBinAddr: 0x100002980, symSize: 0xFC0 }
  - { offset: 0x172A5, size: 0x8, addend: 0x0, symName: __ZN8FFTBench18run_all_benchmarksEv, symObjAddr: 0x440, symBinAddr: 0x100002980, symSize: 0xFC0 }
  - { offset: 0x191F2, size: 0x8, addend: 0x0, symName: __ZN8FFTBench12benchmark_msERKSt8functionIFvRKSt6vectorISt7complexIdESaIS3_EERS5_EES7_i, symObjAddr: 0x348, symBinAddr: 0x100002888, symSize: 0xF8 }
  - { offset: 0x1967E, size: 0x8, addend: 0x0, symName: __ZN8FFTBench23generate_random_complexEm, symObjAddr: 0x2120, symBinAddr: 0x100004660, symSize: 0x30C }
  - { offset: 0x196B0, size: 0x8, addend: 0x0, symName: __ZZN8FFTBench23generate_random_complexEmE9generator, symObjAddr: 0x7B2D8, symBinAddr: 0x1000100C8, symSize: 0x0 }
  - { offset: 0x196C7, size: 0x8, addend: 0x0, symName: __ZZN8FFTBench23generate_random_complexEmE12distribution, symObjAddr: 0x7B2C0, symBinAddr: 0x1000100B0, symSize: 0x0 }
  - { offset: 0x19CD8, size: 0x8, addend: 0x0, symName: __ZN8FFTBench23ImplementationRegistrarC1ENSt7__cxx1112basic_stringIcSt11char_traitsIcESaIcEEESt8functionIFvRKSt6vectorISt7complexIdESaISA_EERSC_EE, symObjAddr: 0x1BA4, symBinAddr: 0x1000040E4, symSize: 0x208 }
  - { offset: 0x19D0E, size: 0x8, addend: 0x0, symName: __ZN8FFTBench23ImplementationRegistrarC1ENSt7__cxx1112basic_stringIcSt11char_traitsIcESaIcEEESt8functionIFvRKSt6vectorISt7complexIdESaISA_EERSC_EE, symObjAddr: 0x1BA4, symBinAddr: 0x1000040E4, symSize: 0x208 }
  - { offset: 0x1A4F7, size: 0x8, addend: 0x0, symName: __ZN8FFTBench14ImplementationD1Ev, symObjAddr: 0x1C0, symBinAddr: 0x100002700, symSize: 0x80 }
  - { offset: 0x1A519, size: 0x8, addend: 0x0, symName: __ZN8FFTBench14ImplementationD1Ev, symObjAddr: 0x1C0, symBinAddr: 0x100002700, symSize: 0x80 }
  - { offset: 0x1A538, size: 0x8, addend: 0x0, symName: __ZN8FFTBench14ImplementationD1Ev, symObjAddr: 0x1C0, symBinAddr: 0x100002700, symSize: 0x80 }
  - { offset: 0x1A6C8, size: 0x8, addend: 0x0, symName: __ZN8FFTBench18BenchmarkRegistrarC1ENSt7__cxx1112basic_stringIcSt11char_traitsIcESaIcEEESt8functionIFSt6vectorINS_12BenchmarkRowESaIS9_EERKS7_IFvRKS8_ISt7complexIdESaISD_EERSF_EEEE, symObjAddr: 0x15C4, symBinAddr: 0x100003B04, symSize: 0x208 }
  - { offset: 0x1A6FE, size: 0x8, addend: 0x0, symName: __ZN8FFTBench18BenchmarkRegistrarC1ENSt7__cxx1112basic_stringIcSt11char_traitsIcESaIcEEESt8functionIFSt6vectorINS_12BenchmarkRowESaIS9_EERKS7_IFvRKS8_ISt7complexIdESaISD_EERSF_EEEE, symObjAddr: 0x15C4, symBinAddr: 0x100003B04, symSize: 0x208 }
  - { offset: 0x1AEE7, size: 0x8, addend: 0x0, symName: __ZN8FFTBench13BenchmarkCaseD1Ev, symObjAddr: 0x140, symBinAddr: 0x100002680, symSize: 0x80 }
  - { offset: 0x1AF09, size: 0x8, addend: 0x0, symName: __ZN8FFTBench13BenchmarkCaseD1Ev, symObjAddr: 0x140, symBinAddr: 0x100002680, symSize: 0x80 }
  - { offset: 0x1AF28, size: 0x8, addend: 0x0, symName: __ZN8FFTBench13BenchmarkCaseD1Ev, symObjAddr: 0x140, symBinAddr: 0x100002680, symSize: 0x80 }
  - { offset: 0x1B126, size: 0x8, addend: 0x0, symName: __ZZN8FFTBench12_GLOBAL__N_1L23implementation_registryEvE15implementations, symObjAddr: 0x7BCB0, symBinAddr: 0x100010AA0, symSize: 0x0 }
  - { offset: 0x1B171, size: 0x8, addend: 0x0, symName: __ZZN8FFTBench12_GLOBAL__N_1L18benchmark_registryEvE10benchmarks, symObjAddr: 0x7BCD0, symBinAddr: 0x100010AC0, symSize: 0x0 }
  - { offset: 0x1B49F, size: 0x8, addend: 0x0, symName: __ZNKSt5ctypeIcE8do_widenEc, symObjAddr: 0x0, symBinAddr: 0x100002540, symSize: 0x8 }
  - { offset: 0x1B4CE, size: 0x8, addend: 0x0, symName: __ZN8FFTBench21registered_benchmarksEv, symObjAddr: 0x240, symBinAddr: 0x100002780, symSize: 0x84 }
  - { offset: 0x1B4E6, size: 0x8, addend: 0x0, symName: __ZN8FFTBench21registered_benchmarksEv, symObjAddr: 0x240, symBinAddr: 0x100002780, symSize: 0x84 }
  - { offset: 0x1B59D, size: 0x8, addend: 0x0, symName: __ZN8FFTBench26registered_implementationsEv, symObjAddr: 0x2C4, symBinAddr: 0x100002804, symSize: 0x84 }
  - { offset: 0x1B5B5, size: 0x8, addend: 0x0, symName: __ZN8FFTBench26registered_implementationsEv, symObjAddr: 0x2C4, symBinAddr: 0x100002804, symSize: 0x84 }
  - { offset: 0x2198F, size: 0x8, addend: 0x0, symName: __ZN12_GLOBAL__N_1L7kRadix2E, symObjAddr: 0x686E4, symBinAddr: 0x100010AE1, symSize: 0x0 }
  - { offset: 0x2199F, size: 0x8, addend: 0x0, symName: __ZN12_GLOBAL__N_1L7kRadix4E, symObjAddr: 0x686E3, symBinAddr: 0x100010AE0, symSize: 0x0 }
  - { offset: 0x219AF, size: 0x8, addend: 0x0, symName: __ZN12_GLOBAL__N_1L10kIterativeE, symObjAddr: 0x686E2, symBinAddr: 0x100010ADF, symSize: 0x0 }
  - { offset: 0x219BF, size: 0x8, addend: 0x0, symName: __ZN12_GLOBAL__N_1L9kSimdIterE, symObjAddr: 0x686E1, symBinAddr: 0x100010ADE, symSize: 0x0 }
  - { offset: 0x219CF, size: 0x8, addend: 0x0, symName: __ZN12_GLOBAL__N_1L11kOpenmpIterE, symObjAddr: 0x686E0, symBinAddr: 0x100010ADD, symSize: 0x0 }
  - { offset: 0x219DF, size: 0x8, addend: 0x0, symName: __ZN12_GLOBAL__N_1L9kFourStepE, symObjAddr: 0x686DF, symBinAddr: 0x100010ADC, symSize: 0x0 }
  - { offset: 0x219EF, size: 0x8, addend: 0x0, symName: __ZN12_GLOBAL__N_1L17kParallelFourStepE, symObjAddr: 0x686DE, symBinAddr: 0x100010ADB, symSize: 0x0 }
  - { offset: 0x219FF, size: 0x8, addend: 0x0, symName: __ZN12_GLOBAL__N_1L9kFftwColdE, symObjAddr: 0x686DD, symBinAddr: 0x100010ADA, symSize: 0x0 }
  - { offset: 0x21A0F, size: 0x8, addend: 0x0, symName: __ZN12_GLOBAL__N_1L11kFftwSteadyE, symObjAddr: 0x686DC, symBinAddr: 0x100010AD9, symSize: 0x0 }
  - { offset: 0x21B4B, size: 0x8, addend: 0x0, symName: __ZN16ParallelFourStep6detail27fft_parallel_four_step_implERSt6vectorISt7complexIdESaIS3_EE, symObjAddr: 0x1CA0, symBinAddr: 0x100006540, symSize: 0x400 }
  - { offset: 0x21B74, size: 0x8, addend: 0x0, symName: __ZN16ParallelFourStep6detail27fft_parallel_four_step_implERSt6vectorISt7complexIdESaIS3_EE._omp_fn.0, symObjAddr: 0x29C0, symBinAddr: 0x100007260, symSize: 0xA0 }
  - { offset: 0x21BE1, size: 0x8, addend: 0x0, symName: __ZN16ParallelFourStep6detail27fft_parallel_four_step_implERSt6vectorISt7complexIdESaIS3_EE._omp_fn.1, symObjAddr: 0x2920, symBinAddr: 0x1000071C0, symSize: 0xA0 }
  - { offset: 0x2384B, size: 0x8, addend: 0x0, symName: __ZNSt17_Function_handlerIFvRKSt6vectorISt7complexIdESaIS2_EERS4_EPS8_E9_M_invokeERKSt9_Any_dataS6_S7_, symObjAddr: 0x0, symBinAddr: 0x1000049C0, symSize: 0x20 }
  - { offset: 0x23899, size: 0x8, addend: 0x0, symName: __ZNSt17_Function_handlerIFvRKSt6vectorISt7complexIdESaIS2_EERS4_EPS8_E9_M_invokeERKSt9_Any_dataS6_S7_, symObjAddr: 0x0, symBinAddr: 0x1000049C0, symSize: 0x20 }
  - { offset: 0x238D1, size: 0x8, addend: 0x0, symName: __ZNSt17_Function_handlerIFvRKSt6vectorISt7complexIdESaIS2_EERS4_EPS8_E9_M_invokeERKSt9_Any_dataS6_S7_, symObjAddr: 0x0, symBinAddr: 0x1000049C0, symSize: 0x20 }
  - { offset: 0x240CD, size: 0x8, addend: 0x0, symName: __Z22fft_parallel_four_stepRKSt6vectorISt7complexIdESaIS1_EERS3_, symObjAddr: 0x20A4, symBinAddr: 0x100006944, symSize: 0x15C }
  - { offset: 0x246C5, size: 0x8, addend: 0x0, symName: __ZN16ParallelFourStep6detail12fft_row_simdERSt6vectorISt7complexIdESaIS3_EEmm, symObjAddr: 0x2520, symBinAddr: 0x100006DC0, symSize: 0x400 }
  - { offset: 0x25649, size: 0x8, addend: 0x0, symName: __Z13fft_four_stepRKSt6vectorISt7complexIdESaIS1_EERS3_, symObjAddr: 0xC8C, symBinAddr: 0x10000564C, symSize: 0x31C }
  - { offset: 0x264F2, size: 0x8, addend: 0x0, symName: __Z13fft_iterativeRKSt6vectorISt7complexIdESaIS1_EERS3_, symObjAddr: 0x740, symBinAddr: 0x100005100, symSize: 0x26C }
  - { offset: 0x26925, size: 0x8, addend: 0x0, symName: __Z11radix_4_fftRKSt6vectorISt7complexIdESaIS1_EERS3_, symObjAddr: 0x1204, symBinAddr: 0x100005AA4, symSize: 0x6DC }
  - { offset: 0x289DC, size: 0x8, addend: 0x0, symName: __Z11radix_2_fftRKSt6vectorISt7complexIdESaIS1_EERS3_, symObjAddr: 0x2200, symBinAddr: 0x100006AA0, symSize: 0x320 }
  - { offset: 0x29A25, size: 0x8, addend: 0x0, symName: __ZNSt17_Function_handlerIFvRKSt6vectorISt7complexIdESaIS2_EERS4_EPS8_E10_M_managerERSt9_Any_dataRKSB_St18_Manager_operation, symObjAddr: 0x5A0, symBinAddr: 0x100004F60, symSize: 0x40 }
  - { offset: 0x29B1E, size: 0x8, addend: 0x0, symName: __ZNSt7__cxx1112basic_stringIcSt11char_traitsIcESaIcEEC1IS3_EEPKcRKS3_.isra.0, symObjAddr: 0x3640, symBinAddr: 0x100009340, symSize: 0xBC }
  - { offset: 0x29E0E, size: 0x8, addend: 0x0, symName: __ZNSt6vectorISt7complexIdESaIS1_EEaSERKS3_.isra.0, symObjAddr: 0x5E0, symBinAddr: 0x100004FA0, symSize: 0x160 }
  - { offset: 0x2A36F, size: 0x8, addend: 0x0, symName: __ZN12_GLOBAL__N_1L21fft_iterative_inplaceERSt6vectorISt7complexIdESaIS2_EE.isra.0, symObjAddr: 0x9AC, symBinAddr: 0x10000536C, symSize: 0x234 }
  - { offset: 0x2A65E, size: 0x8, addend: 0x0, symName: __ZN12_GLOBAL__N_1L7fft_rowERSt6vectorISt7complexIdESaIS2_EEmm.part.0, symObjAddr: 0xBE0, symBinAddr: 0x1000055A0, symSize: 0xAC }
  - { offset: 0x2A9CE, size: 0x8, addend: 0x0, symName: __ZN16ParallelFourStep6detail10log2_floorEm, symObjAddr: 0xFA8, symBinAddr: 0x100005968, symSize: 0x38 }
  - { offset: 0x2A9FF, size: 0x8, addend: 0x0, symName: __ZN16ParallelFourStep6detail17transpose_blockedEPKSt7complexIdEPS2_mmm, symObjAddr: 0xFE0, symBinAddr: 0x1000059A0, symSize: 0x60 }
  - { offset: 0x2AA4E, size: 0x8, addend: 0x0, symName: __ZN16ParallelFourStep6detail14apply_twiddlesEPSt7complexIdEmm, symObjAddr: 0x1040, symBinAddr: 0x100005A00, symSize: 0x60 }
  - { offset: 0x2AA9D, size: 0x8, addend: 0x0, symName: __ZN16ParallelFourStep6detail9choose_n1Em, symObjAddr: 0x10A0, symBinAddr: 0x100005A60, symSize: 0x30 }
  - { offset: 0x2AAC5, size: 0x8, addend: 0x0, symName: __ZN16ParallelFourStep6detail9choose_n1Em, symObjAddr: 0x10A0, symBinAddr: 0x100005A60, symSize: 0x30 }
  - { offset: 0x2AAF4, size: 0x8, addend: 0x0, symName: __ZN16ParallelFourStep6detail16fft_simd_inplaceERSt6vectorISt7complexIdESaIS3_EE, symObjAddr: 0x18E0, symBinAddr: 0x100006180, symSize: 0x3C0 }
  - { offset: 0x2AB20, size: 0x8, addend: 0x0, symName: __ZN16ParallelFourStep6detail16fft_simd_inplaceERSt6vectorISt7complexIdESaIS3_EE, symObjAddr: 0x18E0, symBinAddr: 0x100006180, symSize: 0x3C0 }
  - { offset: 0x2B64C, size: 0x8, addend: 0x0, symName: __ZN16ParallelFourStep27fft_parallel_four_step_implERSt6vectorISt7complexIdESaIS2_EE, symObjAddr: 0x20A0, symBinAddr: 0x100006940, symSize: 0x4 }
  - { offset: 0x2B673, size: 0x8, addend: 0x0, symName: __Z20fft_openmp_iterativeRKSt6vectorISt7complexIdESaIS1_EERS3_, symObjAddr: 0x2A60, symBinAddr: 0x100007300, symSize: 0x2A0 }
  - { offset: 0x2BC11, size: 0x8, addend: 0x0, symName: __ZN16ParallelFourStep6detail23fft_openmp_simd_inplaceERSt6vectorISt7complexIdESaIS3_EE, symObjAddr: 0x2D00, symBinAddr: 0x1000075A0, symSize: 0x24C }
  - { offset: 0x2BC3D, size: 0x8, addend: 0x0, symName: __ZN16ParallelFourStep6detail23fft_openmp_simd_inplaceERSt6vectorISt7complexIdESaIS3_EE, symObjAddr: 0x2D00, symBinAddr: 0x1000075A0, symSize: 0x24C }
  - { offset: 0x2C19F, size: 0x8, addend: 0x0, symName: __Z18fft_simd_iterativeRKSt6vectorISt7complexIdESaIS1_EERS3_, symObjAddr: 0x2F4C, symBinAddr: 0x1000077EC, symSize: 0x414 }
  - { offset: 0x34D61, size: 0x8, addend: 0x0, symName: __ZN12_GLOBAL__N_1L11kInputSizesE, symObjAddr: 0x49DDD, symBinAddr: 0x100010AE2, symSize: 0x0 }
  - { offset: 0x35528, size: 0x8, addend: 0x0, symName: __ZNSt17_Function_handlerIFSt6vectorIN8FFTBench12BenchmarkRowESaIS2_EERKSt8functionIFvRKS0_ISt7complexIdESaIS7_EERS9_EEEPSH_E9_M_invokeERKSt9_Any_dataSG_, symObjAddr: 0x0, symBinAddr: 0x100008080, symSize: 0x2C }
  - { offset: 0x35B63, size: 0x8, addend: 0x0, symName: __ZN12_GLOBAL__N_1L21benchmark_input_sizesERKSt8functionIFvRKSt6vectorISt7complexIdESaIS3_EERS5_EE, symObjAddr: 0x68, symBinAddr: 0x1000080E8, symSize: 0x3B8 }
  - { offset: 0x373EB, size: 0x8, addend: 0x0, symName: __ZNSt17_Function_handlerIFSt6vectorIN8FFTBench12BenchmarkRowESaIS2_EERKSt8functionIFvRKS0_ISt7complexIdESaIS7_EERS9_EEEPSH_E10_M_managerERSt9_Any_dataRKSK_St18_Manager_operation, symObjAddr: 0x2C, symBinAddr: 0x1000080AC, symSize: 0x3C }
  - { offset: 0x3E99E, size: 0x8, addend: 0x0, symName: __ZN12_GLOBAL__N_1L12kSteadyStateE, symObjAddr: 0x49E0C, symBinAddr: 0x100010AE3, symSize: 0x0 }
  - { offset: 0x3F5C1, size: 0x8, addend: 0x0, symName: __ZN12_GLOBAL__N_1L22benchmark_steady_stateERKSt8functionIFvRKSt6vectorISt7complexIdESaIS3_EERS5_EE, symObjAddr: 0x68, symBinAddr: 0x100008568, symSize: 0x3B8 }
  - { offset: 0x40E59, size: 0x8, addend: 0x0, symName: __ZN12_GLOBAL__N_19FftwCacheD1Ev, symObjAddr: 0x0, symBinAddr: 0x1000089E0, symSize: 0x48 }
  - { offset: 0x43816, size: 0x8, addend: 0x0, symName: __Z15fftw_fft_steadyRKSt6vectorISt7complexIdESaIS1_EERS3_, symObjAddr: 0x1A0, symBinAddr: 0x100008A40, symSize: 0x244 }
  - { offset: 0x43AD4, size: 0x8, addend: 0x0, symName: __Z13fftw_fft_coldRKSt6vectorISt7complexIdESaIS1_EERS3_, symObjAddr: 0x3E4, symBinAddr: 0x100008C84, symSize: 0x180 }
  - { offset: 0x43E3B, size: 0x8, addend: 0x0, symName: __ZN12_GLOBAL__N_19FftwCacheD1Ev, symObjAddr: 0x0, symBinAddr: 0x1000089E0, symSize: 0x48 }
  - { offset: 0x43EC2, size: 0x8, addend: 0x0, symName: __ZNSt6vectorISt7complexIdESaIS1_EE17_M_default_appendEm, symObjAddr: 0x0, symBinAddr: 0x100008E20, symSize: 0x144 }
  - { offset: 0x472FC, size: 0x8, addend: 0x0, symName: __ZNSt6vectorISt7complexIdESaIS1_EE17_M_default_appendEm, symObjAddr: 0x0, symBinAddr: 0x100008E20, symSize: 0x144 }
  - { offset: 0x47995, size: 0x8, addend: 0x0, symName: __Z3dftRKSt6vectorISt7complexIdESaIS1_EERS3_, symObjAddr: 0x144, symBinAddr: 0x100008F64, symSize: 0x154 }
  - { offset: 0x47C09, size: 0x8, addend: 0x0, symName: ___muldc3, symObjAddr: 0x0, symBinAddr: 0x1000090C0, symSize: 0x24C }
  - { offset: 0x47CDD, size: 0x8, addend: 0x0, symName: ___muldc3, symObjAddr: 0x0, symBinAddr: 0x1000090C0, symSize: 0x24C }
...
