---
triple:          'arm64-apple-darwin'
binary-path:     'build/run_all_tests'
relocations:
  - { offset: 0x2563, size: 0x8, addend: 0x0, symName: _main, symObjAddr: 0x0, symBinAddr: 0x100008F80, symSize: 0x4 }
  - { offset: 0x100B3, size: 0x8, addend: 0x0, symName: __ZStL8__ioinit, symObjAddr: 0x79118, symBinAddr: 0x100010A38, symSize: 0x0 }
  - { offset: 0x109CC, size: 0x8, addend: 0x0, symName: __ZNSt23mersenne_twister_engineIjLm32ELm624ELm397ELm31ELj2567483615ELm11ELj4294967295ELm7ELj2636928640ELm15ELj4022730752ELm18ELj1812433253EE11_M_gen_randEv, symObjAddr: 0x2100, symBinAddr: 0x100002E20, symSize: 0x160 }
  - { offset: 0x11845, size: 0x8, addend: 0x0, symName: __ZNSt6vectorIN7FFTTest14ImplementationESaIS1_EE17_M_realloc_appendIJS1_EEEvDpOT_, symObjAddr: 0x1B20, symBinAddr: 0x100002840, symSize: 0x1C4 }
  - { offset: 0x1240C, size: 0x8, addend: 0x0, symName: __ZNSt6vectorIN7FFTTest8TestCaseESaIS1_EE17_M_realloc_appendIJS1_EEEvDpOT_, symObjAddr: 0x1544, symBinAddr: 0x100002264, symSize: 0x1C4 }
  - { offset: 0x13DDC, size: 0x8, addend: 0x0, symName: __ZNSt6vectorIN7FFTTest14ImplementationESaIS1_EED1Ev, symObjAddr: 0xA0, symBinAddr: 0x100000DC0, symSize: 0xA0 }
  - { offset: 0x14136, size: 0x8, addend: 0x0, symName: __ZNSt6vectorIN7FFTTest8TestCaseESaIS1_EED1Ev, symObjAddr: 0x8, symBinAddr: 0x100000D28, symSize: 0x98 }
  - { offset: 0x14532, size: 0x8, addend: 0x0, symName: __ZN7FFTTest13run_all_testsEv, symObjAddr: 0x420, symBinAddr: 0x100001140, symSize: 0x9E0 }
  - { offset: 0x1611E, size: 0x8, addend: 0x0, symName: __ZN7FFTTest13run_all_testsEv, symObjAddr: 0x420, symBinAddr: 0x100001140, symSize: 0x9E0 }
  - { offset: 0x16133, size: 0x8, addend: 0x0, symName: __ZN7FFTTest13run_all_testsEv, symObjAddr: 0x420, symBinAddr: 0x100001140, symSize: 0x9E0 }
  - { offset: 0x16B2F, size: 0x8, addend: 0x0, symName: __ZN7FFTTest14relative_errorEdd, symObjAddr: 0x3E8, symBinAddr: 0x100001108, symSize: 0x38 }
  - { offset: 0x16B75, size: 0x8, addend: 0x0, symName: __ZN7FFTTest14relative_errorEdd, symObjAddr: 0x3E8, symBinAddr: 0x100001108, symSize: 0x38 }
  - { offset: 0x16BDE, size: 0x8, addend: 0x0, symName: __ZN7FFTTest19find_first_mismatchB5cxx11ERKSt6vectorISt7complexIdESaIS2_EES6_d, symObjAddr: 0xE00, symBinAddr: 0x100001B20, symSize: 0x744 }
  - { offset: 0x18096, size: 0x8, addend: 0x0, symName: __ZN7FFTTest23generate_random_complexEm, symObjAddr: 0x2260, symBinAddr: 0x100002F80, symSize: 0x30C }
  - { offset: 0x180C8, size: 0x8, addend: 0x0, symName: __ZZN7FFTTest23generate_random_complexEmE9generator, symObjAddr: 0x78708, symBinAddr: 0x100010028, symSize: 0x0 }
  - { offset: 0x180DF, size: 0x8, addend: 0x0, symName: __ZZN7FFTTest23generate_random_complexEmE12distribution, symObjAddr: 0x786F0, symBinAddr: 0x100010010, symSize: 0x0 }
  - { offset: 0x186F1, size: 0x8, addend: 0x0, symName: __ZN7FFTTest23ImplementationRegistrarC1ENSt7__cxx1112basic_stringIcSt11char_traitsIcESaIcEEESt8functionIFvRKSt6vectorISt7complexIdESaISA_EERSC_EE, symObjAddr: 0x1CE4, symBinAddr: 0x100002A04, symSize: 0x208 }
  - { offset: 0x18727, size: 0x8, addend: 0x0, symName: __ZN7FFTTest23ImplementationRegistrarC1ENSt7__cxx1112basic_stringIcSt11char_traitsIcESaIcEEESt8functionIFvRKSt6vectorISt7complexIdESaISA_EERSC_EE, symObjAddr: 0x1CE4, symBinAddr: 0x100002A04, symSize: 0x208 }
  - { offset: 0x18F10, size: 0x8, addend: 0x0, symName: __ZN7FFTTest14ImplementationD1Ev, symObjAddr: 0x264, symBinAddr: 0x100000F84, symSize: 0x7C }
  - { offset: 0x18F32, size: 0x8, addend: 0x0, symName: __ZN7FFTTest14ImplementationD1Ev, symObjAddr: 0x264, symBinAddr: 0x100000F84, symSize: 0x7C }
  - { offset: 0x18F51, size: 0x8, addend: 0x0, symName: __ZN7FFTTest14ImplementationD1Ev, symObjAddr: 0x264, symBinAddr: 0x100000F84, symSize: 0x7C }
  - { offset: 0x190E1, size: 0x8, addend: 0x0, symName: __ZN7FFTTest13TestRegistrarC1ENSt7__cxx1112basic_stringIcSt11char_traitsIcESaIcEEESt8functionIFNS_10TestResultERKS7_IFvRKSt6vectorISt7complexIdESaISB_EERSD_EEEE, symObjAddr: 0x1708, symBinAddr: 0x100002428, symSize: 0x208 }
  - { offset: 0x19117, size: 0x8, addend: 0x0, symName: __ZN7FFTTest13TestRegistrarC1ENSt7__cxx1112basic_stringIcSt11char_traitsIcESaIcEEESt8functionIFNS_10TestResultERKS7_IFvRKSt6vectorISt7complexIdESaISB_EERSD_EEEE, symObjAddr: 0x1708, symBinAddr: 0x100002428, symSize: 0x208 }
  - { offset: 0x19900, size: 0x8, addend: 0x0, symName: __ZN7FFTTest8TestCaseD1Ev, symObjAddr: 0x1F0, symBinAddr: 0x100000F10, symSize: 0x74 }
  - { offset: 0x19922, size: 0x8, addend: 0x0, symName: __ZN7FFTTest8TestCaseD1Ev, symObjAddr: 0x1F0, symBinAddr: 0x100000F10, symSize: 0x74 }
  - { offset: 0x19941, size: 0x8, addend: 0x0, symName: __ZN7FFTTest8TestCaseD1Ev, symObjAddr: 0x1F0, symBinAddr: 0x100000F10, symSize: 0x74 }
  - { offset: 0x19A99, size: 0x8, addend: 0x0, symName: __ZN7FFTTest10TestResult4failENSt7__cxx1112basic_stringIcSt11char_traitsIcESaIcEEE, symObjAddr: 0x164, symBinAddr: 0x100000E84, symSize: 0x8C }
  - { offset: 0x19CAF, size: 0x8, addend: 0x0, symName: __ZN7FFTTest10TestResult4passEv, symObjAddr: 0x140, symBinAddr: 0x100000E60, symSize: 0x24 }
  - { offset: 0x19DD4, size: 0x8, addend: 0x0, symName: __ZZN7FFTTest12_GLOBAL__N_1L23implementation_registryEvE15implementations, symObjAddr: 0x790E0, symBinAddr: 0x100010A00, symSize: 0x0 }
  - { offset: 0x19E1F, size: 0x8, addend: 0x0, symName: __ZZN7FFTTest12_GLOBAL__N_1L13test_registryEvE5tests, symObjAddr: 0x79100, symBinAddr: 0x100010A20, symSize: 0x0 }
  - { offset: 0x1A0E5, size: 0x8, addend: 0x0, symName: __ZNKSt5ctypeIcE8do_widenEc, symObjAddr: 0x0, symBinAddr: 0x100000D20, symSize: 0x8 }
  - { offset: 0x1A114, size: 0x8, addend: 0x0, symName: __ZN7FFTTest16registered_testsEv, symObjAddr: 0x2E0, symBinAddr: 0x100001000, symSize: 0x84 }
  - { offset: 0x1A12C, size: 0x8, addend: 0x0, symName: __ZN7FFTTest16registered_testsEv, symObjAddr: 0x2E0, symBinAddr: 0x100001000, symSize: 0x84 }
  - { offset: 0x1A1E3, size: 0x8, addend: 0x0, symName: __ZN7FFTTest26registered_implementationsEv, symObjAddr: 0x364, symBinAddr: 0x100001084, symSize: 0x84 }
  - { offset: 0x1A1FB, size: 0x8, addend: 0x0, symName: __ZN7FFTTest26registered_implementationsEv, symObjAddr: 0x364, symBinAddr: 0x100001084, symSize: 0x84 }
  - { offset: 0x20599, size: 0x8, addend: 0x0, symName: __ZN12_GLOBAL__N_1L13kReferenceDftE, symObjAddr: 0x6823B, symBinAddr: 0x100010A40, symSize: 0x0 }
  - { offset: 0x205A9, size: 0x8, addend: 0x0, symName: __ZN12_GLOBAL__N_1L7kRadix2E, symObjAddr: 0x6823A, symBinAddr: 0x100010A3F, symSize: 0x0 }
  - { offset: 0x205B9, size: 0x8, addend: 0x0, symName: __ZN12_GLOBAL__N_1L7kRadix4E, symObjAddr: 0x68239, symBinAddr: 0x100010A3E, symSize: 0x0 }
  - { offset: 0x205C9, size: 0x8, addend: 0x0, symName: __ZN12_GLOBAL__N_1L10kIterativeE, symObjAddr: 0x68238, symBinAddr: 0x100010A3D, symSize: 0x0 }
  - { offset: 0x205D9, size: 0x8, addend: 0x0, symName: __ZN12_GLOBAL__N_1L9kSimdIterE, symObjAddr: 0x68237, symBinAddr: 0x100010A3C, symSize: 0x0 }
  - { offset: 0x205E9, size: 0x8, addend: 0x0, symName: __ZN12_GLOBAL__N_1L11kOpenmpIterE, symObjAddr: 0x68236, symBinAddr: 0x100010A3B, symSize: 0x0 }
  - { offset: 0x205F9, size: 0x8, addend: 0x0, symName: __ZN12_GLOBAL__N_1L9kFourStepE, symObjAddr: 0x68235, symBinAddr: 0x100010A3A, symSize: 0x0 }
  - { offset: 0x20609, size: 0x8, addend: 0x0, symName: __ZN12_GLOBAL__N_1L17kParallelFourStepE, symObjAddr: 0x68234, symBinAddr: 0x100010A39, symSize: 0x0 }
  - { offset: 0x20745, size: 0x8, addend: 0x0, symName: __ZN16ParallelFourStep6detail27fft_parallel_four_step_implERSt6vectorISt7complexIdESaIS3_EE, symObjAddr: 0x1CA0, symBinAddr: 0x100004E60, symSize: 0x400 }
  - { offset: 0x2076E, size: 0x8, addend: 0x0, symName: __ZN16ParallelFourStep6detail27fft_parallel_four_step_implERSt6vectorISt7complexIdESaIS3_EE._omp_fn.0, symObjAddr: 0x29C0, symBinAddr: 0x100005B80, symSize: 0xA0 }
  - { offset: 0x207DC, size: 0x8, addend: 0x0, symName: __ZN16ParallelFourStep6detail27fft_parallel_four_step_implERSt6vectorISt7complexIdESaIS3_EE._omp_fn.1, symObjAddr: 0x2920, symBinAddr: 0x100005AE0, symSize: 0xA0 }
  - { offset: 0x2243F, size: 0x8, addend: 0x0, symName: __ZNSt17_Function_handlerIFvRKSt6vectorISt7complexIdESaIS2_EERS4_EPS8_E9_M_invokeERKSt9_Any_dataS6_S7_, symObjAddr: 0x0, symBinAddr: 0x1000032E0, symSize: 0x20 }
  - { offset: 0x2248D, size: 0x8, addend: 0x0, symName: __ZNSt17_Function_handlerIFvRKSt6vectorISt7complexIdESaIS2_EERS4_EPS8_E9_M_invokeERKSt9_Any_dataS6_S7_, symObjAddr: 0x0, symBinAddr: 0x1000032E0, symSize: 0x20 }
  - { offset: 0x224C5, size: 0x8, addend: 0x0, symName: __ZNSt17_Function_handlerIFvRKSt6vectorISt7complexIdESaIS2_EERS4_EPS8_E9_M_invokeERKSt9_Any_dataS6_S7_, symObjAddr: 0x0, symBinAddr: 0x1000032E0, symSize: 0x20 }
  - { offset: 0x22CC1, size: 0x8, addend: 0x0, symName: __Z22fft_parallel_four_stepRKSt6vectorISt7complexIdESaIS1_EERS3_, symObjAddr: 0x20A4, symBinAddr: 0x100005264, symSize: 0x15C }
  - { offset: 0x232B9, size: 0x8, addend: 0x0, symName: __ZN16ParallelFourStep6detail12fft_row_simdERSt6vectorISt7complexIdESaIS3_EEmm, symObjAddr: 0x2520, symBinAddr: 0x1000056E0, symSize: 0x400 }
  - { offset: 0x2423F, size: 0x8, addend: 0x0, symName: __Z13fft_four_stepRKSt6vectorISt7complexIdESaIS1_EERS3_, symObjAddr: 0xC8C, symBinAddr: 0x100003F6C, symSize: 0x31C }
  - { offset: 0x250E8, size: 0x8, addend: 0x0, symName: __Z13fft_iterativeRKSt6vectorISt7complexIdESaIS1_EERS3_, symObjAddr: 0x740, symBinAddr: 0x100003A20, symSize: 0x26C }
  - { offset: 0x25521, size: 0x8, addend: 0x0, symName: __Z11radix_4_fftRKSt6vectorISt7complexIdESaIS1_EERS3_, symObjAddr: 0x1204, symBinAddr: 0x1000043C4, symSize: 0x6DC }
  - { offset: 0x275DB, size: 0x8, addend: 0x0, symName: __Z11radix_2_fftRKSt6vectorISt7complexIdESaIS1_EERS3_, symObjAddr: 0x2200, symBinAddr: 0x1000053C0, symSize: 0x320 }
  - { offset: 0x28627, size: 0x8, addend: 0x0, symName: __ZNSt17_Function_handlerIFvRKSt6vectorISt7complexIdESaIS2_EERS4_EPS8_E10_M_managerERSt9_Any_dataRKSB_St18_Manager_operation, symObjAddr: 0x5A0, symBinAddr: 0x100003880, symSize: 0x40 }
  - { offset: 0x28720, size: 0x8, addend: 0x0, symName: __ZNSt7__cxx1112basic_stringIcSt11char_traitsIcESaIcEEC1IS3_EEPKcRKS3_.isra.0, symObjAddr: 0x3640, symBinAddr: 0x100008FA0, symSize: 0xBC }
  - { offset: 0x28A10, size: 0x8, addend: 0x0, symName: __ZNSt6vectorISt7complexIdESaIS1_EEaSERKS3_.isra.0, symObjAddr: 0x5E0, symBinAddr: 0x1000038C0, symSize: 0x160 }
  - { offset: 0x28F71, size: 0x8, addend: 0x0, symName: __ZN12_GLOBAL__N_1L21fft_iterative_inplaceERSt6vectorISt7complexIdESaIS2_EE.isra.0, symObjAddr: 0x9AC, symBinAddr: 0x100003C8C, symSize: 0x234 }
  - { offset: 0x29260, size: 0x8, addend: 0x0, symName: __ZN12_GLOBAL__N_1L7fft_rowERSt6vectorISt7complexIdESaIS2_EEmm.part.0, symObjAddr: 0xBE0, symBinAddr: 0x100003EC0, symSize: 0xAC }
  - { offset: 0x295D0, size: 0x8, addend: 0x0, symName: __ZN16ParallelFourStep6detail10log2_floorEm, symObjAddr: 0xFA8, symBinAddr: 0x100004288, symSize: 0x38 }
  - { offset: 0x29601, size: 0x8, addend: 0x0, symName: __ZN16ParallelFourStep6detail17transpose_blockedEPKSt7complexIdEPS2_mmm, symObjAddr: 0xFE0, symBinAddr: 0x1000042C0, symSize: 0x60 }
  - { offset: 0x29650, size: 0x8, addend: 0x0, symName: __ZN16ParallelFourStep6detail14apply_twiddlesEPSt7complexIdEmm, symObjAddr: 0x1040, symBinAddr: 0x100004320, symSize: 0x60 }
  - { offset: 0x2969F, size: 0x8, addend: 0x0, symName: __ZN16ParallelFourStep6detail9choose_n1Em, symObjAddr: 0x10A0, symBinAddr: 0x100004380, symSize: 0x30 }
  - { offset: 0x296C7, size: 0x8, addend: 0x0, symName: __ZN16ParallelFourStep6detail9choose_n1Em, symObjAddr: 0x10A0, symBinAddr: 0x100004380, symSize: 0x30 }
  - { offset: 0x296F6, size: 0x8, addend: 0x0, symName: __ZN16ParallelFourStep6detail16fft_simd_inplaceERSt6vectorISt7complexIdESaIS3_EE, symObjAddr: 0x18E0, symBinAddr: 0x100004AA0, symSize: 0x3C0 }
  - { offset: 0x29722, size: 0x8, addend: 0x0, symName: __ZN16ParallelFourStep6detail16fft_simd_inplaceERSt6vectorISt7complexIdESaIS3_EE, symObjAddr: 0x18E0, symBinAddr: 0x100004AA0, symSize: 0x3C0 }
  - { offset: 0x2A24E, size: 0x8, addend: 0x0, symName: __ZN16ParallelFourStep27fft_parallel_four_step_implERSt6vectorISt7complexIdESaIS2_EE, symObjAddr: 0x20A0, symBinAddr: 0x100005260, symSize: 0x4 }
  - { offset: 0x2A275, size: 0x8, addend: 0x0, symName: __Z20fft_openmp_iterativeRKSt6vectorISt7complexIdESaIS1_EERS3_, symObjAddr: 0x2A60, symBinAddr: 0x100005C20, symSize: 0x2A0 }
  - { offset: 0x2A813, size: 0x8, addend: 0x0, symName: __ZN16ParallelFourStep6detail23fft_openmp_simd_inplaceERSt6vectorISt7complexIdESaIS3_EE, symObjAddr: 0x2D00, symBinAddr: 0x100005EC0, symSize: 0x24C }
  - { offset: 0x2A83F, size: 0x8, addend: 0x0, symName: __ZN16ParallelFourStep6detail23fft_openmp_simd_inplaceERSt6vectorISt7complexIdESaIS3_EE, symObjAddr: 0x2D00, symBinAddr: 0x100005EC0, symSize: 0x24C }
  - { offset: 0x2ADA1, size: 0x8, addend: 0x0, symName: __Z18fft_simd_iterativeRKSt6vectorISt7complexIdESaIS1_EERS3_, symObjAddr: 0x2F4C, symBinAddr: 0x10000610C, symSize: 0x414 }
  - { offset: 0x30F91, size: 0x8, addend: 0x0, symName: __ZN12_GLOBAL__N_1L9kAllZerosE, symObjAddr: 0x432E2, symBinAddr: 0x100010A43, symSize: 0x0 }
  - { offset: 0x30FA1, size: 0x8, addend: 0x0, symName: __ZN12_GLOBAL__N_1L14kImpulseAtZeroE, symObjAddr: 0x432E1, symBinAddr: 0x100010A42, symSize: 0x0 }
  - { offset: 0x30FB1, size: 0x8, addend: 0x0, symName: __ZN12_GLOBAL__N_1L11kImpulseAtKE, symObjAddr: 0x432E0, symBinAddr: 0x100010A41, symSize: 0x0 }
  - { offset: 0x3163C, size: 0x8, addend: 0x0, symName: __ZNSt17_Function_handlerIFN7FFTTest10TestResultERKSt8functionIFvRKSt6vectorISt7complexIdESaIS5_EERS7_EEEPSF_E9_M_invokeERKSt9_Any_dataSE_, symObjAddr: 0x0, symBinAddr: 0x100006940, symSize: 0x2C }
  - { offset: 0x31E47, size: 0x8, addend: 0x0, symName: __ZN12_GLOBAL__N_1L17test_impulse_at_kERKSt8functionIFvRKSt6vectorISt7complexIdESaIS3_EERS5_EE, symObjAddr: 0x328, symBinAddr: 0x100006C68, symSize: 0x1A4 }
  - { offset: 0x32A31, size: 0x8, addend: 0x0, symName: __ZN12_GLOBAL__N_1L20test_impulse_at_zeroERKSt8functionIFvRKSt6vectorISt7complexIdESaIS3_EERS5_EE, symObjAddr: 0x4CC, symBinAddr: 0x100006E0C, symSize: 0x134 }
  - { offset: 0x3323B, size: 0x8, addend: 0x0, symName: __ZN12_GLOBAL__N_1L14test_all_zerosERKSt8functionIFvRKSt6vectorISt7complexIdESaIS3_EERS5_EE, symObjAddr: 0x600, symBinAddr: 0x100006F40, symSize: 0xE0 }
  - { offset: 0x339F2, size: 0x8, addend: 0x0, symName: __ZN12_GLOBAL__N_1L24verify_matches_referenceERKSt8functionIFvRKSt6vectorISt7complexIdESaIS3_EERS5_EES7_RKNSt7__cxx1112basic_stringIcSt11char_traitsIcESaIcEEE, symObjAddr: 0x68, symBinAddr: 0x1000069A8, symSize: 0x2C0 }
  - { offset: 0x33A70, size: 0x8, addend: 0x0, symName: __ZN12_GLOBAL__N_1L24verify_matches_referenceERKSt8functionIFvRKSt6vectorISt7complexIdESaIS3_EERS5_EES7_RKNSt7__cxx1112basic_stringIcSt11char_traitsIcESaIcEEE, symObjAddr: 0x68, symBinAddr: 0x1000069A8, symSize: 0x2C0 }
  - { offset: 0x33A8F, size: 0x8, addend: 0x0, symName: __ZN12_GLOBAL__N_1L24verify_matches_referenceERKSt8functionIFvRKSt6vectorISt7complexIdESaIS3_EERS5_EES7_RKNSt7__cxx1112basic_stringIcSt11char_traitsIcESaIcEEE, symObjAddr: 0x68, symBinAddr: 0x1000069A8, symSize: 0x2C0 }
  - { offset: 0x33AAF, size: 0x8, addend: 0x0, symName: __ZN12_GLOBAL__N_1L24verify_matches_referenceERKSt8functionIFvRKSt6vectorISt7complexIdESaIS3_EERS5_EES7_RKNSt7__cxx1112basic_stringIcSt11char_traitsIcESaIcEEE, symObjAddr: 0x68, symBinAddr: 0x1000069A8, symSize: 0x2C0 }
  - { offset: 0x33ACF, size: 0x8, addend: 0x0, symName: __ZN12_GLOBAL__N_1L24verify_matches_referenceERKSt8functionIFvRKSt6vectorISt7complexIdESaIS3_EERS5_EES7_RKNSt7__cxx1112basic_stringIcSt11char_traitsIcESaIcEEE, symObjAddr: 0x68, symBinAddr: 0x1000069A8, symSize: 0x2C0 }
  - { offset: 0x34A16, size: 0x8, addend: 0x0, symName: __ZNSt17_Function_handlerIFN7FFTTest10TestResultERKSt8functionIFvRKSt6vectorISt7complexIdESaIS5_EERS7_EEEPSF_E10_M_managerERSt9_Any_dataRKSI_St18_Manager_operation, symObjAddr: 0x2C, symBinAddr: 0x10000696C, symSize: 0x3C }
  - { offset: 0x34B0F, size: 0x8, addend: 0x0, symName: __ZNSt7__cxx1112basic_stringIcSt11char_traitsIcESaIcEEC1IS3_EEPKcRKS3_.isra.0, symObjAddr: 0x7C0, symBinAddr: 0x100009060, symSize: 0xBC }
  - { offset: 0x3B68F, size: 0x8, addend: 0x0, symName: __ZN12_GLOBAL__N_1L14kPowerOf2SizesE, symObjAddr: 0x48180, symBinAddr: 0x100010A44, symSize: 0x0 }
  - { offset: 0x3C195, size: 0x8, addend: 0x0, symName: __ZN12_GLOBAL__N_1L21test_power_of_2_sizesERKSt8functionIFvRKSt6vectorISt7complexIdESaIS3_EERS5_EE, symObjAddr: 0x68, symBinAddr: 0x1000071C8, symSize: 0xA64 }
  - { offset: 0x4518B, size: 0x8, addend: 0x0, symName: __ZN12_GLOBAL__N_1L9kParsevalE, symObjAddr: 0x4BF20, symBinAddr: 0x100010A45, symSize: 0x0 }
  - { offset: 0x45D4C, size: 0x8, addend: 0x0, symName: __ZN9__gnu_cxx12__to_xstringINSt7__cxx1112basic_stringIcSt11char_traitsIcESaIcEEEcEET_PFiPT0_mPKS8_PcEmSB_z, symObjAddr: 0x68, symBinAddr: 0x100007D28, symSize: 0xF8 }
  - { offset: 0x46252, size: 0x8, addend: 0x0, symName: __ZN12_GLOBAL__N_1L21test_parseval_theoremERKSt8functionIFvRKSt6vectorISt7complexIdESaIS3_EERS5_EE, symObjAddr: 0x160, symBinAddr: 0x100007E20, symSize: 0xB5C }
  - { offset: 0x4920E, size: 0x8, addend: 0x0, symName: __ZNSt6vectorISt7complexIdESaIS1_EE17_M_default_appendEm, symObjAddr: 0x0, symBinAddr: 0x100008A80, symSize: 0x144 }
  - { offset: 0x4C63A, size: 0x8, addend: 0x0, symName: __ZNSt6vectorISt7complexIdESaIS1_EE17_M_default_appendEm, symObjAddr: 0x0, symBinAddr: 0x100008A80, symSize: 0x144 }
  - { offset: 0x4CCD6, size: 0x8, addend: 0x0, symName: __Z3dftRKSt6vectorISt7complexIdESaIS1_EERS3_, symObjAddr: 0x144, symBinAddr: 0x100008BC4, symSize: 0x154 }
  - { offset: 0x4CF4E, size: 0x8, addend: 0x0, symName: ___muldc3, symObjAddr: 0x0, symBinAddr: 0x100008D20, symSize: 0x24C }
  - { offset: 0x4D024, size: 0x8, addend: 0x0, symName: ___muldc3, symObjAddr: 0x0, symBinAddr: 0x100008D20, symSize: 0x24C }
...
